; Function Attrs: nounwind uwtable
define zeroext range(i8 0, 2) i8 @l___private_Std_Net_Addr_0__Std_Net_decEqSocketAddressV4____x40_Std_Net_Addr___hyg_264_(ptr noundef readonly captures(none) %0, ptr noundef readonly captures(none) %1) local_unnamed_addr #0 {
  %3 = getelementptr inbounds nuw i8, ptr %0, i64 8
  %4 = load ptr, ptr %3, align 8, !tbaa !4
  %5 = getelementptr i8, ptr %0, i64 16
  %.val = load i16, ptr %5, align 2, !tbaa !11
  %6 = getelementptr inbounds nuw i8, ptr %1, i64 8
  %7 = load ptr, ptr %6, align 8, !tbaa !4
  %8 = getelementptr i8, ptr %1, i64 16
  %.val12 = load i16, ptr %8, align 2, !tbaa !11
  %9 = load ptr, ptr @l___private_Init_Data_Vector_Basic_0__decEqVector____x40_Init_Data_Vector_Basic___hyg_100____at___private_Std_Net_Addr_0__Std_Net_decEqMACAddr____x40_Std_Net_Addr___hyg_29____spec__1___rarg___closed__1, align 8, !tbaa !4
  %10 = tail call zeroext i8 @l_Array_instDecidableEq___rarg(ptr noundef %9, ptr noundef %4, ptr noundef %7) #7
  %11 = icmp ne i8 %10, 0
  %12 = icmp eq i16 %.val, %.val12
  %narrow = select i1 %11, i1 %12, i1 false
  %.0 = zext i1 %narrow to i8
  ret i8 %.0
}